(lp0
(S'cppflags'
p1
ccopy_reg
_reconstructor
p2
(cino.utils
SpaceList
p3
c__builtin__
list
p4
(lp5
S'-mmcu=atmega32u4'
p6
aS'-DF_CPU=16000000L'
p7
aS'-DARDUINO=164'
p8
aS'-I/usr/share/arduino/hardware/arduino/avr/cores/arduino'
p9
aS'-ffunction-sections'
p10
aS'-fdata-sections'
p11
aS'-g'
p12
aS'-Os'
p13
aS'-w'
p14
aS'-DUSB_VID=0x2341'
p15
aS'-DUSB_PID=0x8036'
p16
aS'-I/usr/share/arduino/hardware/arduino/avr/variants/leonardo'
p17
aS'-Ilib/HX711'
p18
aS'-I/usr/share/arduino/hardware/arduino/avr/cores/arduino'
p19
atp20
Rp21
tp22
a(S'version.txt'
p23
S'/usr/share/arduino/lib/version.txt'
p24
tp25
a(S'used_libs'
p26
(lp27
S'lib/HX711'
p28
aS'/usr/share/arduino/hardware/arduino/avr/cores/arduino'
p29
atp30
a(S'cc'
p31
S'/usr/share/arduino/hardware/tools/avr/bin/avr-gcc'
p32
tp33
a(S'make'
p34
S'/usr/bin/make'
p35
tp36
a(S'build_dir'
p37
S'.build/leonardo'
p38
tp39
a(S'arduino_core_dir'
p40
g29
tp41
a(S'boards.txt'
p42
(lp43
S'/usr/share/arduino/hardware/arduino/avr/boards.txt'
p44
atp45
a(S'cxxflags'
p46
g2
(g3
g4
(lp47
S'-fno-exceptions'
p48
atp49
Rp50
tp51
a(S'arduino_variants_dir'
p52
S'/usr/share/arduino/hardware/arduino/avr/variants'
p53
tp54
a(S'deps'
p55
g2
(g3
g4
(lp56
S'.build/leonardo/src/dependencies.d'
p57
aS'.build/leonardo/arduino/dependencies.d'
p58
aS'.build/leonardo/HX711/dependencies.d'
p59
atp60
Rp61
tp62
a(S'ar'
p63
S'/usr/share/arduino/hardware/tools/avr/bin/avr-ar'
p64
tp65
a(S'names'
p66
(dp67
S'cpp'
p68
S'%s.cpp'
p69
sS'obj'
p70
S'%s.o'
p71
sg55
S'%s.d'
p72
sS'lib'
p73
S'lib%s.a'
p74
stp75
a(S'cflags'
p76
g2
(g3
g4
(lp77
tp78
Rp79
tp80
a(S'ldflags'
p81
g2
(g3
g4
(lp82
g6
aS'-Wl,-Os'
p83
aS'-Wl,--gc-sections'
p84
atp85
Rp86
tp87
a(S'arduino_libraries_dir'
p88
S'/usr/share/arduino/libraries'
p89
tp90
a(S'arduino_lib_version'
p91
g2
(cino.environment
Version
p92
c__builtin__
tuple
p93
(I1
I6
I4
tp94
tp95
Rp96
tp97
a(S'objcopy'
p98
S'/usr/share/arduino/hardware/tools/avr/bin/avr-objcopy'
p99
tp100
a(S'board_models'
p101
cino.environment
BoardModels
p102
((lp103
(lp104
S'menu'
p105
a(dp106
S'cpu'
p107
S'Processor'
p108
sS'_coredir'
p109
S'/usr/share/arduino/hardware/arduino/avr'
p110
saa(lp111
S'yun'
p112
a(dp113
S'name'
p114
S'Arduino Y\xc3\xban'
p115
sS'vid'
p116
(dp117
S'1'
p118
S'0x2341'
p119
sS'0'
p120
S'0x2341'
p121
sS'3'
p122
S'0x2A03'
p123
sS'2'
p124
S'0x2A03'
p125
ssS'pid'
p126
(dp127
g118
S'0x8041'
p128
sg120
S'0x0041'
p129
sg122
S'0x8041'
p130
sg124
S'0x0041'
p131
ssS'upload'
p132
(dp133
S'protocol'
p134
S'avr109'
p135
sS'disable_flushing'
p136
S'true'
p137
sS'tool'
p138
S'avrdude'
p139
sS'maximum_data_size'
p140
S'2560'
p141
sS'via_ssh'
p142
S'true'
p143
sS'maximum_size'
p144
S'28672'
p145
sS'use_1200bps_touch'
p146
S'true'
p147
sS'speed'
p148
S'57600'
p149
sS'wait_for_upload_port'
p150
S'true'
p151
ssS'build'
p152
(dp153
S'core'
p154
S'arduino'
p155
sS'f_cpu'
p156
S'16000000L'
p157
sS'vid'
p158
S'0x2341'
p159
sS'usb_product'
p160
S'"Arduino Yun"'
p161
sS'pid'
p162
S'0x8041'
p163
sS'extra_flags'
p164
S'{build.usb_flags}'
p165
sS'board'
p166
S'AVR_YUN'
p167
sS'mcu'
p168
S'atmega32u4'
p169
sS'variant'
p170
S'yun'
p171
ssg109
S'/usr/share/arduino/hardware/arduino/avr'
p172
sS'bootloader'
p173
(dp174
S'extended_fuses'
p175
S'0xfb'
p176
sS'high_fuses'
p177
S'0xd8'
p178
sS'low_fuses'
p179
S'0xff'
p180
sS'lock_bits'
p181
S'0x2F'
p182
sS'tool'
p183
S'avrdude'
p184
sS'file'
p185
S'caterina/Caterina-Yun.hex'
p186
sS'unlock_bits'
p187
S'0x3F'
p188
ssaa(lp189
S'uno'
p190
a(dp191
S'name'
p192
S'Arduino Uno'
p193
sS'vid'
p194
(dp195
g118
S'0x2341'
p196
sg120
S'0x2341'
p197
sg124
S'0x2A03'
p198
ssS'pid'
p199
(dp200
g118
S'0x0001'
p201
sg120
S'0x0043'
p202
sg124
S'0x0043'
p203
ssS'upload'
p204
(dp205
S'speed'
p206
S'115200'
p207
sS'tool'
p208
S'avrdude'
p209
sS'protocol'
p210
S'arduino'
p211
sS'maximum_size'
p212
S'32256'
p213
sS'maximum_data_size'
p214
S'2048'
p215
ssS'build'
p216
(dp217
S'core'
p218
S'arduino'
p219
sS'mcu'
p220
S'atmega328p'
p221
sS'f_cpu'
p222
S'16000000L'
p223
sS'board'
p224
S'AVR_UNO'
p225
sS'variant'
p226
S'standard'
p227
ssg109
S'/usr/share/arduino/hardware/arduino/avr'
p228
sS'bootloader'
p229
(dp230
S'extended_fuses'
p231
S'0x05'
p232
sS'high_fuses'
p233
S'0xDE'
p234
sS'low_fuses'
p235
S'0xFF'
p236
sS'lock_bits'
p237
S'0x0F'
p238
sS'tool'
p239
S'avrdude'
p240
sS'file'
p241
S'optiboot/optiboot_atmega328.hex'
p242
sS'unlock_bits'
p243
S'0x3F'
p244
ssaa(lp245
S'diecimila'
p246
a(dp247
S'name'
p248
S'Arduino Duemilanove or Diecimila'
p249
sS'menu'
p250
(dp251
S'cpu'
p252
(dp253
S'atmega168'
p254
(dp255
S'bootloader'
p256
(dp257
S'extended_fuses'
p258
S'0x00'
p259
sS'high_fuses'
p260
S'0xdd'
p261
sS'file'
p262
S'atmega/ATmegaBOOT_168_diecimila.hex'
p263
ssS'upload'
p264
(dp265
S'maximum_size'
p266
S'14336'
p267
sS'speed'
p268
S'19200'
p269
sS'maximum_data_size'
p270
S'1024'
p271
ssS'_'
p272
S'ATmega168'
p273
sS'build'
p274
(dp275
S'mcu'
p276
S'atmega168'
p277
sssS'atmega328'
p278
(dp279
S'bootloader'
p280
(dp281
S'extended_fuses'
p282
S'0x05'
p283
sS'high_fuses'
p284
S'0xDA'
p285
sS'file'
p286
S'atmega/ATmegaBOOT_168_atmega328.hex'
p287
ssS'upload'
p288
(dp289
S'maximum_size'
p290
S'30720'
p291
sS'speed'
p292
S'57600'
p293
sS'maximum_data_size'
p294
S'2048'
p295
ssg272
S'ATmega328'
p296
sS'build'
p297
(dp298
S'mcu'
p299
S'atmega328p'
p300
sssssS'upload'
p301
(dp302
S'tool'
p303
S'avrdude'
p304
sS'protocol'
p305
S'arduino'
p306
ssS'build'
p307
(dp308
S'core'
p309
S'arduino'
p310
sS'f_cpu'
p311
S'16000000L'
p312
sS'board'
p313
S'AVR_DUEMILANOVE'
p314
sS'variant'
p315
S'standard'
p316
ssg109
S'/usr/share/arduino/hardware/arduino/avr'
p317
sS'bootloader'
p318
(dp319
S'low_fuses'
p320
S'0xFF'
p321
sS'lock_bits'
p322
S'0x0F'
p323
sS'tool'
p324
S'avrdude'
p325
sS'unlock_bits'
p326
S'0x3F'
p327
ssaa(lp328
S'nano'
p329
a(dp330
S'name'
p331
S'Arduino Nano'
p332
sS'menu'
p333
(dp334
S'cpu'
p335
(dp336
S'atmega168'
p337
(dp338
S'bootloader'
p339
(dp340
S'low_fuses'
p341
S'0xff'
p342
sS'extended_fuses'
p343
S'0x00'
p344
sS'high_fuses'
p345
S'0xdd'
p346
sS'file'
p347
S'atmega/ATmegaBOOT_168_diecimila.hex'
p348
ssS'upload'
p349
(dp350
S'maximum_size'
p351
S'14336'
p352
sS'speed'
p353
S'19200'
p354
sS'maximum_data_size'
p355
S'1024'
p356
ssg272
S'ATmega168'
p357
sS'build'
p358
(dp359
S'mcu'
p360
S'atmega168'
p361
sssS'atmega328'
p362
(dp363
S'bootloader'
p364
(dp365
S'low_fuses'
p366
S'0xFF'
p367
sS'extended_fuses'
p368
S'0x05'
p369
sS'high_fuses'
p370
S'0xDA'
p371
sS'file'
p372
S'atmega/ATmegaBOOT_168_atmega328.hex'
p373
ssS'upload'
p374
(dp375
S'maximum_size'
p376
S'30720'
p377
sS'speed'
p378
S'57600'
p379
sS'maximum_data_size'
p380
S'2048'
p381
ssg272
S'ATmega328'
p382
sS'build'
p383
(dp384
S'mcu'
p385
S'atmega328p'
p386
sssssS'upload'
p387
(dp388
S'tool'
p389
S'avrdude'
p390
sS'protocol'
p391
S'arduino'
p392
ssS'build'
p393
(dp394
S'core'
p395
S'arduino'
p396
sS'f_cpu'
p397
S'16000000L'
p398
sS'board'
p399
S'AVR_NANO'
p400
sS'variant'
p401
S'eightanaloginputs'
p402
ssg109
S'/usr/share/arduino/hardware/arduino/avr'
p403
sS'bootloader'
p404
(dp405
S'lock_bits'
p406
S'0x0F'
p407
sS'tool'
p408
S'avrdude'
p409
sS'unlock_bits'
p410
S'0x3F'
p411
ssaa(lp412
S'mega'
p413
a(dp414
S'name'
p415
S'Arduino Mega or Mega 2560'
p416
sS'vid'
p417
(dp418
g118
S'0x2341'
p419
sg120
S'0x2341'
p420
sg122
S'0x2A03'
p421
sg124
S'0x2A03'
p422
ssS'menu'
p423
(dp424
S'cpu'
p425
(dp426
S'atmega1280'
p427
(dp428
S'bootloader'
p429
(dp430
S'extended_fuses'
p431
S'0xF5'
p432
sS'high_fuses'
p433
S'0xDA'
p434
sS'file'
p435
S'atmega/ATmegaBOOT_168_atmega1280.hex'
p436
ssS'upload'
p437
(dp438
S'speed'
p439
S'57600'
p440
sS'maximum_size'
p441
S'126976'
p442
sS'protocol'
p443
S'arduino'
p444
ssg272
S'ATmega1280'
p445
sS'build'
p446
(dp447
S'mcu'
p448
S'atmega1280'
p449
sS'board'
p450
S'AVR_MEGA'
p451
sssS'atmega2560'
p452
(dp453
S'bootloader'
p454
(dp455
S'extended_fuses'
p456
S'0xFD'
p457
sS'high_fuses'
p458
S'0xD8'
p459
sS'file'
p460
S'stk500v2/stk500boot_v2_mega2560.hex'
p461
ssS'upload'
p462
(dp463
S'speed'
p464
S'115200'
p465
sS'maximum_size'
p466
S'253952'
p467
sS'protocol'
p468
S'wiring'
p469
ssg272
S'ATmega2560 (Mega 2560)'
p470
sS'build'
p471
(dp472
S'mcu'
p473
S'atmega2560'
p474
sS'board'
p475
S'AVR_MEGA2560'
p476
sssssS'pid'
p477
(dp478
g118
S'0x0042'
p479
sg120
S'0x0010'
p480
sg122
S'0x0042'
p481
sg124
S'0x0010'
p482
ssS'upload'
p483
(dp484
S'tool'
p485
S'avrdude'
p486
sS'maximum_data_size'
p487
S'8192'
p488
ssS'build'
p489
(dp490
S'core'
p491
S'arduino'
p492
sS'f_cpu'
p493
S'16000000L'
p494
sS'board'
p495
S'AVR_MEGA2560'
p496
sS'variant'
p497
S'mega'
p498
ssg109
S'/usr/share/arduino/hardware/arduino/avr'
p499
sS'bootloader'
p500
(dp501
S'low_fuses'
p502
S'0xFF'
p503
sS'lock_bits'
p504
S'0x0F'
p505
sS'tool'
p506
S'avrdude'
p507
sS'unlock_bits'
p508
S'0x3F'
p509
ssaa(lp510
S'megaADK'
p511
a(dp512
S'name'
p513
S'Arduino Mega ADK'
p514
sS'vid'
p515
(dp516
g118
S'0x2341'
p517
sg120
S'0x2341'
p518
sg122
S'0x2A03'
p519
sg124
S'0x2A03'
p520
ssS'pid'
p521
(dp522
g118
S'0x0044'
p523
sg120
S'0x003f'
p524
sg122
S'0x0044'
p525
sg124
S'0x003f'
p526
ssS'upload'
p527
(dp528
S'speed'
p529
S'115200'
p530
sS'tool'
p531
S'avrdude'
p532
sS'protocol'
p533
S'wiring'
p534
sS'maximum_size'
p535
S'253952'
p536
sS'maximum_data_size'
p537
S'8192'
p538
ssS'build'
p539
(dp540
S'core'
p541
S'arduino'
p542
sS'mcu'
p543
S'atmega2560'
p544
sS'f_cpu'
p545
S'16000000L'
p546
sS'board'
p547
S'AVR_ADK'
p548
sS'variant'
p549
S'mega'
p550
ssg109
S'/usr/share/arduino/hardware/arduino/avr'
p551
sS'bootloader'
p552
(dp553
S'extended_fuses'
p554
S'0xFD'
p555
sS'high_fuses'
p556
S'0xD8'
p557
sS'low_fuses'
p558
S'0xFF'
p559
sS'lock_bits'
p560
S'0x0F'
p561
sS'tool'
p562
S'avrdude'
p563
sS'file'
p564
S'stk500v2/stk500boot_v2_mega2560.hex'
p565
sS'unlock_bits'
p566
S'0x3F'
p567
ssaa(lp568
S'leonardo'
p569
a(dp570
S'name'
p571
S'Arduino Leonardo'
p572
sS'vid'
p573
(dp574
g118
S'0x2341'
p575
sg120
S'0x2341'
p576
sg122
S'0x2A03'
p577
sg124
S'0x2A03'
p578
ssS'pid'
p579
(dp580
g118
S'0x8036'
p581
sg120
S'0x0036'
p582
sg122
S'0x8036'
p583
sg124
S'0x0036'
p584
ssS'upload'
p585
(dp586
S'protocol'
p587
S'avr109'
p588
sS'disable_flushing'
p589
S'true'
p590
sS'tool'
p591
S'avrdude'
p592
sS'maximum_data_size'
p593
S'2560'
p594
sS'maximum_size'
p595
S'28672'
p596
sS'use_1200bps_touch'
p597
S'true'
p598
sS'speed'
p599
S'57600'
p600
sS'wait_for_upload_port'
p601
S'true'
p602
ssS'build'
p603
(dp604
S'core'
p605
S'arduino'
p606
sS'f_cpu'
p607
S'16000000L'
p608
sS'vid'
p609
S'0x2341'
p610
sS'usb_product'
p611
S'"Arduino Leonardo"'
p612
sS'pid'
p613
S'0x8036'
p614
sS'extra_flags'
p615
S'{build.usb_flags}'
p616
sS'board'
p617
S'AVR_LEONARDO'
p618
sS'mcu'
p619
S'atmega32u4'
p620
sS'variant'
p621
S'leonardo'
p622
ssg109
S'/usr/share/arduino/hardware/arduino/avr'
p623
sS'bootloader'
p624
(dp625
S'extended_fuses'
p626
S'0xcb'
p627
sS'high_fuses'
p628
S'0xd8'
p629
sS'low_fuses'
p630
S'0xff'
p631
sS'lock_bits'
p632
S'0x2F'
p633
sS'tool'
p634
S'avrdude'
p635
sS'file'
p636
S'caterina/Caterina-Leonardo.hex'
p637
sS'unlock_bits'
p638
S'0x3F'
p639
ssaa(lp640
S'micro'
p641
a(dp642
S'name'
p643
S'Arduino Micro'
p644
sS'vid'
p645
(dp646
g118
S'0x2341'
p647
sg120
S'0x2341'
p648
sg122
S'0x2A03'
p649
sg124
S'0x2A03'
p650
ssS'pid'
p651
(dp652
g118
S'0x8037'
p653
sg120
S'0x0037'
p654
sg122
S'0x8037'
p655
sg124
S'0x0037'
p656
ssS'upload'
p657
(dp658
S'protocol'
p659
S'avr109'
p660
sS'disable_flushing'
p661
S'true'
p662
sS'tool'
p663
S'avrdude'
p664
sS'maximum_data_size'
p665
S'2560'
p666
sS'maximum_size'
p667
S'28672'
p668
sS'use_1200bps_touch'
p669
S'true'
p670
sS'speed'
p671
S'57600'
p672
sS'wait_for_upload_port'
p673
S'true'
p674
ssS'build'
p675
(dp676
S'core'
p677
S'arduino'
p678
sS'f_cpu'
p679
S'16000000L'
p680
sS'vid'
p681
S'0x2341'
p682
sS'usb_product'
p683
S'"Arduino Micro"'
p684
sS'pid'
p685
S'0x8037'
p686
sS'extra_flags'
p687
S'{build.usb_flags}'
p688
sS'board'
p689
S'AVR_MICRO'
p690
sS'mcu'
p691
S'atmega32u4'
p692
sS'variant'
p693
S'micro'
p694
ssg109
S'/usr/share/arduino/hardware/arduino/avr'
p695
sS'bootloader'
p696
(dp697
S'extended_fuses'
p698
S'0xcb'
p699
sS'high_fuses'
p700
S'0xd8'
p701
sS'low_fuses'
p702
S'0xff'
p703
sS'lock_bits'
p704
S'0x2F'
p705
sS'tool'
p706
S'avrdude'
p707
sS'file'
p708
S'caterina/Caterina-Micro.hex'
p709
sS'unlock_bits'
p710
S'0x3F'
p711
ssaa(lp712
S'esplora'
p713
a(dp714
S'name'
p715
S'Arduino Esplora'
p716
sS'vid'
p717
(dp718
g118
S'0x2341'
p719
sg120
S'0x2341'
p720
sg122
S'0x2A03'
p721
sg124
S'0x2A03'
p722
ssS'pid'
p723
(dp724
g118
S'0x803C'
p725
sg120
S'0x003C'
p726
sg122
S'0x803C'
p727
sg124
S'0x003C'
p728
ssS'upload'
p729
(dp730
S'protocol'
p731
S'avr109'
p732
sS'disable_flushing'
p733
S'true'
p734
sS'tool'
p735
S'avrdude'
p736
sS'maximum_data_size'
p737
S'2560'
p738
sS'maximum_size'
p739
S'28672'
p740
sS'use_1200bps_touch'
p741
S'true'
p742
sS'speed'
p743
S'57600'
p744
sS'wait_for_upload_port'
p745
S'true'
p746
ssS'build'
p747
(dp748
S'core'
p749
S'arduino'
p750
sS'f_cpu'
p751
S'16000000L'
p752
sS'vid'
p753
S'0x2341'
p754
sS'usb_product'
p755
S'"Arduino Esplora"'
p756
sS'pid'
p757
S'0x803c'
p758
sS'extra_flags'
p759
S'{build.usb_flags}'
p760
sS'board'
p761
S'AVR_ESPLORA'
p762
sS'mcu'
p763
S'atmega32u4'
p764
sS'variant'
p765
S'leonardo'
p766
ssg109
S'/usr/share/arduino/hardware/arduino/avr'
p767
sS'bootloader'
p768
(dp769
S'extended_fuses'
p770
S'0xcb'
p771
sS'high_fuses'
p772
S'0xd8'
p773
sS'low_fuses'
p774
S'0xff'
p775
sS'lock_bits'
p776
S'0x2F'
p777
sS'tool'
p778
S'avrdude'
p779
sS'file'
p780
S'caterina/Caterina-Esplora.hex'
p781
sS'unlock_bits'
p782
S'0x3F'
p783
ssaa(lp784
S'mini'
p785
a(dp786
S'name'
p787
S'Arduino Mini'
p788
sS'menu'
p789
(dp790
S'cpu'
p791
(dp792
S'atmega168'
p793
(dp794
S'bootloader'
p795
(dp796
S'extended_fuses'
p797
S'0x00'
p798
sS'high_fuses'
p799
S'0xdd'
p800
sS'file'
p801
S'atmega/ATmegaBOOT_168_ng.hex'
p802
ssS'upload'
p803
(dp804
S'maximum_size'
p805
S'14336'
p806
sS'speed'
p807
S'19200'
p808
sS'maximum_data_size'
p809
S'1024'
p810
ssg272
S'ATmega168'
p811
sS'build'
p812
(dp813
S'mcu'
p814
S'atmega168'
p815
sssS'atmega328'
p816
(dp817
S'bootloader'
p818
(dp819
S'extended_fuses'
p820
S'0x05'
p821
sS'high_fuses'
p822
S'0xd8'
p823
sS'file'
p824
S'optiboot/optiboot_atmega328-Mini.hex'
p825
ssS'upload'
p826
(dp827
S'maximum_size'
p828
S'28672'
p829
sS'speed'
p830
S'115200'
p831
sS'maximum_data_size'
p832
S'2048'
p833
ssg272
S'ATmega328'
p834
sS'build'
p835
(dp836
S'mcu'
p837
S'atmega328p'
p838
sssssS'upload'
p839
(dp840
S'tool'
p841
S'avrdude'
p842
sS'protocol'
p843
S'arduino'
p844
ssS'build'
p845
(dp846
S'core'
p847
S'arduino'
p848
sS'f_cpu'
p849
S'16000000L'
p850
sS'board'
p851
S'AVR_MINI'
p852
sS'variant'
p853
S'eightanaloginputs'
p854
ssg109
S'/usr/share/arduino/hardware/arduino/avr'
p855
sS'bootloader'
p856
(dp857
S'low_fuses'
p858
S'0xff'
p859
sS'lock_bits'
p860
S'0x0F'
p861
sS'tool'
p862
S'avrdude'
p863
sS'unlock_bits'
p864
S'0x3F'
p865
ssaa(lp866
S'ethernet'
p867
a(dp868
S'build'
p869
(dp870
S'f_cpu'
p871
S'16000000L'
p872
sS'mcu'
p873
S'atmega328p'
p874
sS'variant'
p875
S'ethernet'
p876
sS'board'
p877
S'AVR_ETHERNET'
p878
sS'core'
p879
S'arduino'
p880
ssS'bootloader'
p881
(dp882
S'extended_fuses'
p883
S'0x05'
p884
sS'high_fuses'
p885
S'0xde'
p886
sS'low_fuses'
p887
S'0xff'
p888
sS'lock_bits'
p889
S'0x0F'
p890
sS'tool'
p891
S'avrdude'
p892
sS'file'
p893
S'optiboot/optiboot_atmega328.hex'
p894
sS'unlock_bits'
p895
S'0x3F'
p896
ssS'upload'
p897
(dp898
S'speed'
p899
S'115200'
p900
sS'tool'
p901
S'avrdude'
p902
sS'protocol'
p903
S'arduino'
p904
sS'maximum_size'
p905
S'32256'
p906
sS'maximum_data_size'
p907
S'2048'
p908
ssS'name'
p909
S'Arduino Ethernet'
p910
sg109
S'/usr/share/arduino/hardware/arduino/avr'
p911
saa(lp912
S'fio'
p913
a(dp914
S'build'
p915
(dp916
S'core'
p917
S'arduino'
p918
sS'mcu'
p919
S'atmega328p'
p920
sS'f_cpu'
p921
S'8000000L'
p922
sS'board'
p923
S'AVR_FIO'
p924
sS'variant'
p925
S'eightanaloginputs'
p926
ssS'bootloader'
p927
(dp928
S'extended_fuses'
p929
S'0x05'
p930
sS'high_fuses'
p931
S'0xDA'
p932
sS'low_fuses'
p933
S'0xFF'
p934
sS'lock_bits'
p935
S'0x0F'
p936
sS'tool'
p937
S'avrdude'
p938
sS'file'
p939
S'atmega/ATmegaBOOT_168_atmega328_pro_8MHz.hex'
p940
sS'unlock_bits'
p941
S'0x3F'
p942
ssS'upload'
p943
(dp944
S'speed'
p945
S'57600'
p946
sS'tool'
p947
S'avrdude'
p948
sS'protocol'
p949
S'arduino'
p950
sS'maximum_size'
p951
S'30720'
p952
sS'maximum_data_size'
p953
S'2048'
p954
ssS'name'
p955
S'Arduino Fio'
p956
sg109
S'/usr/share/arduino/hardware/arduino/avr'
p957
saa(lp958
S'bt'
p959
a(dp960
S'name'
p961
S'Arduino BT'
p962
sS'menu'
p963
(dp964
S'cpu'
p965
(dp966
S'atmega168'
p967
(dp968
S'bootloader'
p969
(dp970
S'extended_fuses'
p971
S'0x00'
p972
sS'high_fuses'
p973
S'0xdd'
p974
sS'file'
p975
S'bt/ATmegaBOOT_168.hex'
p976
ssS'upload'
p977
(dp978
S'maximum_size'
p979
S'14336'
p980
sS'maximum_data_size'
p981
S'1024'
p982
ssg272
S'ATmega168'
p983
sS'build'
p984
(dp985
S'mcu'
p986
S'atmega168'
p987
sssS'atmega328'
p988
(dp989
S'bootloader'
p990
(dp991
S'extended_fuses'
p992
S'0x05'
p993
sS'high_fuses'
p994
S'0xd8'
p995
sS'file'
p996
S'bt/ATmegaBOOT_168_atmega328_bt.hex'
p997
ssS'upload'
p998
(dp999
S'maximum_size'
p1000
S'28672'
p1001
sS'maximum_data_size'
p1002
S'2048'
p1003
ssg272
S'ATmega328'
p1004
sS'build'
p1005
(dp1006
S'mcu'
p1007
S'atmega328p'
p1008
sssssS'upload'
p1009
(dp1010
S'speed'
p1011
S'19200'
p1012
sS'tool'
p1013
S'avrdude'
p1014
sS'protocol'
p1015
S'arduino'
p1016
sS'disable_flushing'
p1017
S'true'
p1018
ssS'build'
p1019
(dp1020
S'core'
p1021
S'arduino'
p1022
sS'f_cpu'
p1023
S'16000000L'
p1024
sS'board'
p1025
S'AVR_BT'
p1026
sS'variant'
p1027
S'eightanaloginputs'
p1028
ssg109
S'/usr/share/arduino/hardware/arduino/avr'
p1029
sS'bootloader'
p1030
(dp1031
S'low_fuses'
p1032
S'0xff'
p1033
sS'lock_bits'
p1034
S'0x0F'
p1035
sS'tool'
p1036
S'avrdude'
p1037
sS'unlock_bits'
p1038
S'0x3F'
p1039
ssaa(lp1040
S'LilyPadUSB'
p1041
a(dp1042
S'name'
p1043
S'LilyPad Arduino USB'
p1044
sS'vid'
p1045
(dp1046
g118
S'0x1B4F'
p1047
sg120
S'0x1B4F'
p1048
ssS'pid'
p1049
(dp1050
g118
S'0x9208'
p1051
sg120
S'0x9207'
p1052
ssS'upload'
p1053
(dp1054
S'protocol'
p1055
S'avr109'
p1056
sS'disable_flushing'
p1057
S'true'
p1058
sS'tool'
p1059
S'avrdude'
p1060
sS'maximum_data_size'
p1061
S'2560'
p1062
sS'maximum_size'
p1063
S'28672'
p1064
sS'use_1200bps_touch'
p1065
S'true'
p1066
sS'speed'
p1067
S'57600'
p1068
sS'wait_for_upload_port'
p1069
S'true'
p1070
ssS'build'
p1071
(dp1072
S'core'
p1073
S'arduino'
p1074
sS'f_cpu'
p1075
S'8000000L'
p1076
sS'vid'
p1077
S'0x1B4F'
p1078
sS'usb_product'
p1079
S'"LilyPad USB"'
p1080
sS'pid'
p1081
S'0x9208'
p1082
sS'extra_flags'
p1083
S'{build.usb_flags}'
p1084
sS'board'
p1085
S'AVR_LILYPAD_USB'
p1086
sS'mcu'
p1087
S'atmega32u4'
p1088
sS'variant'
p1089
S'leonardo'
p1090
ssg109
S'/usr/share/arduino/hardware/arduino/avr'
p1091
sS'bootloader'
p1092
(dp1093
S'extended_fuses'
p1094
S'0xce'
p1095
sS'high_fuses'
p1096
S'0xd8'
p1097
sS'low_fuses'
p1098
S'0xff'
p1099
sS'lock_bits'
p1100
S'0x2F'
p1101
sS'tool'
p1102
S'avrdude'
p1103
sS'file'
p1104
S'caterina-LilyPadUSB/Caterina-LilyPadUSB.hex'
p1105
sS'unlock_bits'
p1106
S'0x3F'
p1107
ssaa(lp1108
S'lilypad'
p1109
a(dp1110
S'name'
p1111
S'LilyPad Arduino'
p1112
sS'menu'
p1113
(dp1114
S'cpu'
p1115
(dp1116
S'atmega168'
p1117
(dp1118
S'bootloader'
p1119
(dp1120
S'low_fuses'
p1121
S'0xe2'
p1122
sS'extended_fuses'
p1123
S'0x00'
p1124
sS'high_fuses'
p1125
S'0xdd'
p1126
sS'file'
p1127
S'lilypad/LilyPadBOOT_168.hex'
p1128
ssS'upload'
p1129
(dp1130
S'maximum_size'
p1131
S'14336'
p1132
sS'speed'
p1133
S'19200'
p1134
sS'maximum_data_size'
p1135
S'1024'
p1136
ssg272
S'ATmega168'
p1137
sS'build'
p1138
(dp1139
S'mcu'
p1140
S'atmega168'
p1141
sssS'atmega328'
p1142
(dp1143
S'bootloader'
p1144
(dp1145
S'low_fuses'
p1146
S'0xFF'
p1147
sS'extended_fuses'
p1148
S'0x05'
p1149
sS'high_fuses'
p1150
S'0xDA'
p1151
sS'file'
p1152
S'atmega/ATmegaBOOT_168_atmega328_pro_8MHz.hex'
p1153
ssS'upload'
p1154
(dp1155
S'maximum_size'
p1156
S'30720'
p1157
sS'speed'
p1158
S'57600'
p1159
sS'maximum_data_size'
p1160
S'2048'
p1161
ssg272
S'ATmega328'
p1162
sS'build'
p1163
(dp1164
S'mcu'
p1165
S'atmega328p'
p1166
sssssS'upload'
p1167
(dp1168
S'tool'
p1169
S'avrdude'
p1170
sS'protocol'
p1171
S'arduino'
p1172
ssS'build'
p1173
(dp1174
S'core'
p1175
S'arduino'
p1176
sS'f_cpu'
p1177
S'8000000L'
p1178
sS'board'
p1179
S'AVR_LILYPAD'
p1180
sS'variant'
p1181
S'standard'
p1182
ssg109
S'/usr/share/arduino/hardware/arduino/avr'
p1183
sS'bootloader'
p1184
(dp1185
S'lock_bits'
p1186
S'0x0F'
p1187
sS'tool'
p1188
S'avrdude'
p1189
sS'unlock_bits'
p1190
S'0x3F'
p1191
ssaa(lp1192
S'pro'
p1193
a(dp1194
S'name'
p1195
S'Arduino Pro or Pro Mini'
p1196
sS'menu'
p1197
(dp1198
S'cpu'
p1199
(dp1200
S'16MHzatmega328'
p1201
(dp1202
S'bootloader'
p1203
(dp1204
S'low_fuses'
p1205
S'0xFF'
p1206
sS'extended_fuses'
p1207
S'0x05'
p1208
sS'high_fuses'
p1209
S'0xDA'
p1210
sS'file'
p1211
S'atmega/ATmegaBOOT_168_atmega328.hex'
p1212
ssS'upload'
p1213
(dp1214
S'maximum_size'
p1215
S'30720'
p1216
sS'speed'
p1217
S'57600'
p1218
sS'maximum_data_size'
p1219
S'2048'
p1220
ssg272
S'ATmega328 (5V, 16 MHz)'
p1221
sS'build'
p1222
(dp1223
S'mcu'
p1224
S'atmega328p'
p1225
sS'f_cpu'
p1226
S'16000000L'
p1227
sssS'8MHzatmega328'
p1228
(dp1229
S'bootloader'
p1230
(dp1231
S'low_fuses'
p1232
S'0xFF'
p1233
sS'extended_fuses'
p1234
S'0x05'
p1235
sS'high_fuses'
p1236
S'0xDA'
p1237
sS'file'
p1238
S'atmega/ATmegaBOOT_168_atmega328_pro_8MHz.hex'
p1239
ssS'upload'
p1240
(dp1241
S'maximum_size'
p1242
S'30720'
p1243
sS'speed'
p1244
S'57600'
p1245
sS'maximum_data_size'
p1246
S'2048'
p1247
ssg272
S'ATmega328 (3.3V, 8 MHz)'
p1248
sS'build'
p1249
(dp1250
S'mcu'
p1251
S'atmega328p'
p1252
sS'f_cpu'
p1253
S'8000000L'
p1254
sssS'8MHzatmega168'
p1255
(dp1256
S'bootloader'
p1257
(dp1258
S'low_fuses'
p1259
S'0xc6'
p1260
sS'extended_fuses'
p1261
S'0x00'
p1262
sS'high_fuses'
p1263
S'0xdd'
p1264
sS'file'
p1265
S'atmega/ATmegaBOOT_168_pro_8MHz.hex'
p1266
ssS'upload'
p1267
(dp1268
S'maximum_size'
p1269
S'14336'
p1270
sS'speed'
p1271
S'19200'
p1272
sS'maximum_data_size'
p1273
S'1024'
p1274
ssg272
S'ATmega168 (3.3V, 8 MHz)'
p1275
sS'build'
p1276
(dp1277
S'mcu'
p1278
S'atmega168'
p1279
sS'f_cpu'
p1280
S'8000000L'
p1281
sssS'16MHzatmega168'
p1282
(dp1283
S'bootloader'
p1284
(dp1285
S'low_fuses'
p1286
S'0xff'
p1287
sS'extended_fuses'
p1288
S'0x00'
p1289
sS'high_fuses'
p1290
S'0xdd'
p1291
sS'file'
p1292
S'atmega/ATmegaBOOT_168_diecimila.hex'
p1293
ssS'upload'
p1294
(dp1295
S'maximum_size'
p1296
S'14336'
p1297
sS'speed'
p1298
S'19200'
p1299
sS'maximum_data_size'
p1300
S'1024'
p1301
ssg272
S'ATmega168 (5V, 16 MHz)'
p1302
sS'build'
p1303
(dp1304
S'mcu'
p1305
S'atmega168'
p1306
sS'f_cpu'
p1307
S'16000000L'
p1308
sssssS'upload'
p1309
(dp1310
S'tool'
p1311
S'avrdude'
p1312
sS'protocol'
p1313
S'arduino'
p1314
ssS'build'
p1315
(dp1316
S'core'
p1317
S'arduino'
p1318
sS'variant'
p1319
S'eightanaloginputs'
p1320
sS'board'
p1321
S'AVR_PRO'
p1322
ssg109
S'/usr/share/arduino/hardware/arduino/avr'
p1323
sS'bootloader'
p1324
(dp1325
S'lock_bits'
p1326
S'0x0F'
p1327
sS'tool'
p1328
S'avrdude'
p1329
sS'unlock_bits'
p1330
S'0x3F'
p1331
ssaa(lp1332
S'atmegang'
p1333
a(dp1334
S'name'
p1335
S'Arduino NG or older'
p1336
sS'menu'
p1337
(dp1338
S'cpu'
p1339
(dp1340
S'atmega168'
p1341
(dp1342
S'bootloader'
p1343
(dp1344
S'low_fuses'
p1345
S'0xff'
p1346
sS'extended_fuses'
p1347
S'0x00'
p1348
sS'high_fuses'
p1349
S'0xdd'
p1350
sS'file'
p1351
S'atmega/ATmegaBOOT_168_ng.hex'
p1352
ssS'upload'
p1353
(dp1354
S'maximum_size'
p1355
S'14336'
p1356
sS'maximum_data_size'
p1357
S'1024'
p1358
ssg272
S'ATmega168'
p1359
sS'build'
p1360
(dp1361
S'mcu'
p1362
S'atmega168'
p1363
sssS'atmega8'
p1364
(dp1365
S'bootloader'
p1366
(dp1367
S'low_fuses'
p1368
S'0xdf'
p1369
sS'high_fuses'
p1370
S'0xca'
p1371
sS'file'
p1372
S'atmega8/ATmegaBOOT-prod-firmware-2009-11-07.hex'
p1373
ssS'upload'
p1374
(dp1375
S'maximum_size'
p1376
S'7168'
p1377
sS'maximum_data_size'
p1378
S'1024'
p1379
ssg272
S'ATmega8'
p1380
sS'build'
p1381
(dp1382
S'mcu'
p1383
S'atmega8'
p1384
sssssS'upload'
p1385
(dp1386
S'speed'
p1387
S'19200'
p1388
sS'tool'
p1389
S'avrdude'
p1390
sS'protocol'
p1391
S'arduino'
p1392
ssS'build'
p1393
(dp1394
S'core'
p1395
S'arduino'
p1396
sS'mcu'
p1397
S'atmegang'
p1398
sS'f_cpu'
p1399
S'16000000L'
p1400
sS'board'
p1401
S'AVR_NG'
p1402
sS'variant'
p1403
S'standard'
p1404
ssg109
S'/usr/share/arduino/hardware/arduino/avr'
p1405
sS'bootloader'
p1406
(dp1407
S'lock_bits'
p1408
S'0x0F'
p1409
sS'tool'
p1410
S'avrdude'
p1411
sS'unlock_bits'
p1412
S'0x3F'
p1413
ssaa(lp1414
S'robotControl'
p1415
a(dp1416
S'name'
p1417
S'Arduino Robot Control'
p1418
sS'vid'
p1419
(dp1420
g118
S'0x2341'
p1421
sg120
S'0x2341'
p1422
sg122
S'0x2A03'
p1423
sg124
S'0x2A03'
p1424
ssS'pid'
p1425
(dp1426
g118
S'0x8038'
p1427
sg120
S'0x0038'
p1428
sg122
S'0x8038'
p1429
sg124
S'0x0038'
p1430
ssS'upload'
p1431
(dp1432
S'protocol'
p1433
S'avr109'
p1434
sS'disable_flushing'
p1435
S'true'
p1436
sS'tool'
p1437
S'avrdude'
p1438
sS'maximum_data_size'
p1439
S'2560'
p1440
sS'maximum_size'
p1441
S'28672'
p1442
sS'use_1200bps_touch'
p1443
S'true'
p1444
sS'speed'
p1445
S'57600'
p1446
sS'wait_for_upload_port'
p1447
S'true'
p1448
ssS'build'
p1449
(dp1450
S'core'
p1451
S'arduino'
p1452
sS'f_cpu'
p1453
S'16000000L'
p1454
sS'vid'
p1455
S'0x2341'
p1456
sS'usb_product'
p1457
S'"Robot Control"'
p1458
sS'pid'
p1459
S'0x8038'
p1460
sS'extra_flags'
p1461
S'{build.usb_flags}'
p1462
sS'board'
p1463
S'AVR_ROBOT_CONTROL'
p1464
sS'mcu'
p1465
S'atmega32u4'
p1466
sS'variant'
p1467
S'robot_control'
p1468
ssg109
S'/usr/share/arduino/hardware/arduino/avr'
p1469
sS'bootloader'
p1470
(dp1471
S'extended_fuses'
p1472
S'0xcb'
p1473
sS'high_fuses'
p1474
S'0xd8'
p1475
sS'low_fuses'
p1476
S'0xff'
p1477
sS'lock_bits'
p1478
S'0x2F'
p1479
sS'tool'
p1480
S'avrdude'
p1481
sS'file'
p1482
S'caterina-Arduino_Robot/Caterina-Robot-Control.hex'
p1483
sS'unlock_bits'
p1484
S'0x3F'
p1485
ssaa(lp1486
S'robotMotor'
p1487
a(dp1488
S'name'
p1489
S'Arduino Robot Motor'
p1490
sS'vid'
p1491
(dp1492
g118
S'0x2341'
p1493
sg120
S'0x2341'
p1494
sg122
S'0x2A03'
p1495
sg124
S'0x2A03'
p1496
ssS'pid'
p1497
(dp1498
g118
S'0x8039'
p1499
sg120
S'0x0039'
p1500
sg122
S'0x8039'
p1501
sg124
S'0x0039'
p1502
ssS'upload'
p1503
(dp1504
S'protocol'
p1505
S'avr109'
p1506
sS'disable_flushing'
p1507
S'true'
p1508
sS'tool'
p1509
S'avrdude'
p1510
sS'maximum_data_size'
p1511
S'2560'
p1512
sS'maximum_size'
p1513
S'28672'
p1514
sS'use_1200bps_touch'
p1515
S'true'
p1516
sS'speed'
p1517
S'57600'
p1518
sS'wait_for_upload_port'
p1519
S'true'
p1520
ssS'build'
p1521
(dp1522
S'core'
p1523
S'arduino'
p1524
sS'f_cpu'
p1525
S'16000000L'
p1526
sS'vid'
p1527
S'0x2341'
p1528
sS'usb_product'
p1529
S'"Robot Motor"'
p1530
sS'pid'
p1531
S'0x8039'
p1532
sS'extra_flags'
p1533
S'{build.usb_flags}'
p1534
sS'board'
p1535
S'AVR_ROBOT_MOTOR'
p1536
sS'mcu'
p1537
S'atmega32u4'
p1538
sS'variant'
p1539
S'robot_motor'
p1540
ssg109
S'/usr/share/arduino/hardware/arduino/avr'
p1541
sS'bootloader'
p1542
(dp1543
S'extended_fuses'
p1544
S'0xcb'
p1545
sS'high_fuses'
p1546
S'0xd8'
p1547
sS'low_fuses'
p1548
S'0xff'
p1549
sS'lock_bits'
p1550
S'0x2F'
p1551
sS'tool'
p1552
S'avrdude'
p1553
sS'file'
p1554
S'caterina-Arduino_Robot/Caterina-Robot-Motor.hex'
p1555
sS'unlock_bits'
p1556
S'0x3F'
p1557
ssaa(lp1558
S'gemma'
p1559
a(dp1560
S'name'
p1561
S'Arduino Gemma'
p1562
sS'vid'
p1563
(dp1564
g120
S'0x2341'
p1565
ssS'pid'
p1566
(dp1567
g120
S'0x0c9f'
p1568
ssS'upload'
p1569
(dp1570
S'tool'
p1571
S'avrdude'
p1572
sS'maximum_size'
p1573
S'5310'
p1574
ssS'build'
p1575
(dp1576
S'core'
p1577
S'arduino'
p1578
sS'mcu'
p1579
S'attiny85'
p1580
sS'f_cpu'
p1581
S'8000000L'
p1582
sS'board'
p1583
S'AVR_GEMMA'
p1584
sS'variant'
p1585
S'gemma'
p1586
ssg109
S'/usr/share/arduino/hardware/arduino/avr'
p1587
sS'bootloader'
p1588
(dp1589
S'extended_fuses'
p1590
S'0xFE'
p1591
sS'high_fuses'
p1592
S'0xD5'
p1593
sS'low_fuses'
p1594
S'0xF1'
p1595
sS'lock_bits'
p1596
S''
p1597
sS'tool'
p1598
S'avrdude'
p1599
sS'file'
p1600
S'gemma/gemma_v1.hex'
p1601
sS'unlock_bits'
p1602
g1597
ssaatp1603
Rp1604
(dp1605
S'default'
p1606
S'uno'
p1607
sbtp1608
a(S'cxx'
p1609
S'/usr/share/arduino/hardware/tools/avr/bin/avr-g++'
p1610
tp1611
a.